; Function Attrs: mustprogress uwtable
define hidden noundef zeroext i1 @_ZN4cvc58internal6theory11quantifiers12SygusSampler8isLinearENS0_12NodeTemplateILb1EEE(ptr noundef nonnull align 8 dereferenceable(800) %0, ptr noundef readonly captures(none) %1) local_unnamed_addr #3 align 2 personality ptr @__gxx_personality_v0 {
  %3 = alloca %"class.cvc5::internal::NodeTemplate", align 8
  %4 = load ptr, ptr %1, align 8, !tbaa !98
  store ptr %4, ptr %3, align 8, !tbaa !98
  %5 = load i64, ptr %4, align 8
  %6 = lshr i64 %5, 40
  %7 = trunc nuw nsw i64 %6 to i32
  %8 = and i32 %7, 1048575
  %9 = icmp samesign ult i32 %8, 1048574
  br i1 %9, label %10, label %15, !prof !121

10:                                               ; preds = %2
  %11 = add i64 %5, 1099511627776
  %12 = and i64 %11, 1152920405095219200
  %13 = and i64 %5, -1152920405095219201
  %14 = or disjoint i64 %12, %13
  store i64 %14, ptr %4, align 8
  br label %_ZN4cvc58internal12NodeTemplateILb1EEC2ERKS2_.exit

15:                                               ; preds = %2
  %16 = icmp eq i32 %8, 1048574
  br i1 %16, label %17, label %_ZN4cvc58internal12NodeTemplateILb1EEC2ERKS2_.exit, !prof !100

17:                                               ; preds = %15
  %18 = or i64 %5, 1152920405095219200
  store i64 %18, ptr %4, align 8
  tail call void @_ZN4cvc58internal4expr9NodeValue20markRefCountMaxedOutEv(ptr noundef nonnull align 8 dereferenceable(24) %4)
  br label %_ZN4cvc58internal12NodeTemplateILb1EEC2ERKS2_.exit

_ZN4cvc58internal12NodeTemplateILb1EEC2ERKS2_.exit: ; preds = %10, %15, %17
  %19 = invoke noundef zeroext i1 @_ZN4cvc58internal6theory11quantifiers12SygusSampler14checkVariablesENS0_12NodeTemplateILb1EEEbb(ptr noundef nonnull align 8 dereferenceable(800) %0, ptr noundef nonnull %3, i1 noundef zeroext false, i1 noundef zeroext true)
          to label %20 unwind label %33

20:                                               ; preds = %_ZN4cvc58internal12NodeTemplateILb1EEC2ERKS2_.exit
  %21 = load i64, ptr %4, align 8
  %22 = and i64 %21, 1152920405095219200
  %.not.i.i = icmp eq i64 %22, 1152920405095219200
  br i1 %.not.i.i, label %_ZN4cvc58internal12NodeTemplateILb1EED2Ev.exit, label %23, !prof !100

23:                                               ; preds = %20
  %24 = add i64 %21, 1152920405095219200
  %25 = and i64 %24, 1152920405095219200
  %26 = and i64 %21, -1152920405095219201
  %27 = or disjoint i64 %25, %26
  store i64 %27, ptr %4, align 8
  %28 = icmp eq i64 %25, 0
  br i1 %28, label %29, label %_ZN4cvc58internal12NodeTemplateILb1EED2Ev.exit, !prof !100

29:                                               ; preds = %23
  invoke void @_ZN4cvc58internal4expr9NodeValue15markForDeletionEv(ptr noundef nonnull align 8 dereferenceable(24) %4)
          to label %_ZN4cvc58internal12NodeTemplateILb1EED2Ev.exit unwind label %30

30:                                               ; preds = %29
  %31 = landingpad { ptr, i32 }
          catch ptr null
  %32 = extractvalue { ptr, i32 } %31, 0
  tail call void @__clang_call_terminate(ptr %32) #26
  unreachable

_ZN4cvc58internal12NodeTemplateILb1EED2Ev.exit:   ; preds = %20, %23, %29
  ret i1 %19

33:                                               ; preds = %_ZN4cvc58internal12NodeTemplateILb1EEC2ERKS2_.exit
  %34 = landingpad { ptr, i32 }
          cleanup
  call void @_ZN4cvc58internal12NodeTemplateILb1EED2Ev(ptr noundef nonnull align 8 dereferenceable(8) %3) #24
  resume { ptr, i32 } %34
}